target datalayout = "e-m:e-p270:32:32-p271:32:32-p272:64:64-i64:64-i128:128-f80:128-n8:16:32:64-S128"
target triple = "x86_64-pc-linux-gnu"

%struct.H5FS_section_class_t = type { i32, i64, i32, ptr, ptr, ptr, ptr, ptr, ptr, ptr, ptr, ptr, ptr, ptr, ptr, ptr, ptr }
%struct.H5HF_sect_private_t = type { ptr }

@H5HF_init_g = external global i8, align 1
@H5_libterm_g = external global i8, align 1
@.str = private unnamed_addr constant [105 x i8] c"generated/home/dtcxzyw/WorkSpace/Projects/compilers/llvm-opt-benchmark/bench/hdf5/hdf5/src/H5HFsection.c\00", align 1
@H5E_HEAP_g = external global i64, align 8
@H5E_CANTRELEASE_g = external global i64, align 8
@H5E_CANTDEC_g = external global i64, align 8
@__func__.H5HF__sect_row_term_cls = private unnamed_addr constant [24 x i8] c"H5HF__sect_row_term_cls\00", align 1
@.str.37 = private unnamed_addr constant [37 x i8] c"can't terminate common section class\00", align 1
@__func__.H5FS__sect_term_cls = private unnamed_addr constant [20 x i8] c"H5FS__sect_term_cls\00", align 1
@.str.38 = private unnamed_addr constant [54 x i8] c"can't decrement reference count on shared heap header\00", align 1

; Function Attrs: nounwind uwtable
define internal i32 @H5FS__sect_term_cls(ptr noundef %0) #0 {
  %2 = alloca ptr, align 8
  %3 = alloca ptr, align 8
  %4 = alloca i32, align 4
  %5 = alloca i8, align 1
  store ptr %0, ptr %2, align 8, !tbaa !30
  call void @llvm.lifetime.start.p0(i64 8, ptr %3) #7
  call void @llvm.lifetime.start.p0(i64 4, ptr %4) #7
  store i32 0, ptr %4, align 4, !tbaa !11
  call void @llvm.lifetime.start.p0(i64 1, ptr %5) #7
  store i8 0, ptr %5, align 1, !tbaa !13
  %6 = load i8, ptr @H5HF_init_g, align 1, !tbaa !13, !range !15, !noundef !16
  %7 = trunc i8 %6 to i1
  br i1 %7, label %12, label %8

8:                                                ; preds = %1
  %9 = load i8, ptr @H5_libterm_g, align 1, !tbaa !13, !range !15, !noundef !16
  %10 = trunc i8 %9 to i1
  %11 = xor i1 %10, true
  br label %12

12:                                               ; preds = %8, %1
  %13 = phi i1 [ true, %1 ], [ %11, %8 ]
  %14 = xor i1 %13, true
  %15 = xor i1 %14, true
  %16 = zext i1 %15 to i32
  %17 = sext i32 %16 to i64
  %18 = call i64 @llvm.expect.i64(i64 %17, i64 1)
  %19 = icmp ne i64 %18, 0
  br i1 %19, label %20, label %54

20:                                               ; preds = %12
  %21 = load ptr, ptr %2, align 8, !tbaa !30
  %22 = getelementptr inbounds nuw %struct.H5FS_section_class_t, ptr %21, i32 0, i32 3
  %23 = load ptr, ptr %22, align 8, !tbaa !76
  store ptr %23, ptr %3, align 8, !tbaa !10
  %24 = load ptr, ptr %3, align 8, !tbaa !10
  %25 = getelementptr inbounds nuw %struct.H5HF_sect_private_t, ptr %24, i32 0, i32 0
  %26 = load ptr, ptr %25, align 8, !tbaa !19
  %27 = call i32 @H5HF__hdr_decr(ptr noundef %26)
  %28 = icmp slt i32 %27, 0
  br i1 %28, label %29, label %48

29:                                               ; preds = %20
  br label %30

30:                                               ; preds = %29
  br label %31

31:                                               ; preds = %30
  br label %32

32:                                               ; preds = %31
  %33 = load i64, ptr @H5E_HEAP_g, align 8, !tbaa !25
  %34 = load i64, ptr @H5E_CANTDEC_g, align 8, !tbaa !25
  %35 = call i32 (ptr, ptr, i32, i64, i64, ptr, ...) @H5E_printf_stack(ptr noundef @.str, ptr noundef @__func__.H5FS__sect_term_cls, i32 noundef 338, i64 noundef %33, i64 noundef %34, ptr noundef @.str.38)
  br label %36

36:                                               ; preds = %32
  br label %37

37:                                               ; preds = %36
  store i8 1, ptr %5, align 1, !tbaa !13
  %38 = load i8, ptr %5, align 1, !tbaa !13, !range !15, !noundef !16
  %39 = trunc i8 %38 to i1
  %40 = zext i1 %39 to i8
  store i8 %40, ptr %5, align 1, !tbaa !13
  br label %41

41:                                               ; preds = %37
  br label %42

42:                                               ; preds = %41
  br label %43

43:                                               ; preds = %42
  store i32 -1, ptr %4, align 4, !tbaa !11
  br label %53

44:                                               ; No predecessors!
  br label %45

45:                                               ; preds = %44
  br label %46

46:                                               ; preds = %45
  br label %47

47:                                               ; preds = %46
  br label %48

48:                                               ; preds = %47, %20
  %49 = load ptr, ptr %3, align 8, !tbaa !10
  %50 = call ptr @H5MM_xfree(ptr noundef %49)
  %51 = load ptr, ptr %2, align 8, !tbaa !30
  %52 = getelementptr inbounds nuw %struct.H5FS_section_class_t, ptr %51, i32 0, i32 3
  store ptr %50, ptr %52, align 8, !tbaa !76
  br label %53

53:                                               ; preds = %48, %43
  br label %54

54:                                               ; preds = %53, %12
  %55 = load i32, ptr %4, align 4, !tbaa !11
  call void @llvm.lifetime.end.p0(i64 1, ptr %5) #7
  call void @llvm.lifetime.end.p0(i64 4, ptr %4) #7
  call void @llvm.lifetime.end.p0(i64 8, ptr %3) #7
  ret i32 %55
}

; Function Attrs: nounwind uwtable
define internal i32 @H5HF__sect_row_term_cls(ptr noundef %0) #0 {
  %2 = alloca ptr, align 8
  %3 = alloca i32, align 4
  %4 = alloca i8, align 1
  store ptr %0, ptr %2, align 8, !tbaa !30
  call void @llvm.lifetime.start.p0(i64 4, ptr %3) #7
  store i32 0, ptr %3, align 4, !tbaa !11
  call void @llvm.lifetime.start.p0(i64 1, ptr %4) #7
  store i8 0, ptr %4, align 1, !tbaa !13
  %5 = load i8, ptr @H5HF_init_g, align 1, !tbaa !13, !range !15, !noundef !16
  %6 = trunc i8 %5 to i1
  br i1 %6, label %11, label %7

7:                                                ; preds = %1
  %8 = load i8, ptr @H5_libterm_g, align 1, !tbaa !13, !range !15, !noundef !16
  %9 = trunc i8 %8 to i1
  %10 = xor i1 %9, true
  br label %11

11:                                               ; preds = %7, %1
  %12 = phi i1 [ true, %1 ], [ %10, %7 ]
  %13 = xor i1 %12, true
  %14 = xor i1 %13, true
  %15 = zext i1 %14 to i32
  %16 = sext i32 %15 to i64
  %17 = call i64 @llvm.expect.i64(i64 %16, i64 1)
  %18 = icmp ne i64 %17, 0
  br i1 %18, label %19, label %44

19:                                               ; preds = %11
  %20 = load ptr, ptr %2, align 8, !tbaa !30
  %21 = call i32 @H5FS__sect_term_cls(ptr noundef %20)
  %22 = icmp slt i32 %21, 0
  br i1 %22, label %23, label %42

23:                                               ; preds = %19
  br label %24

24:                                               ; preds = %23
  br label %25

25:                                               ; preds = %24
  br label %26

26:                                               ; preds = %25
  %27 = load i64, ptr @H5E_HEAP_g, align 8, !tbaa !25
  %28 = load i64, ptr @H5E_CANTRELEASE_g, align 8, !tbaa !25
  %29 = call i32 (ptr, ptr, i32, i64, i64, ptr, ...) @H5E_printf_stack(ptr noundef @.str, ptr noundef @__func__.H5HF__sect_row_term_cls, i32 noundef 1532, i64 noundef %27, i64 noundef %28, ptr noundef @.str.37)
  br label %30

30:                                               ; preds = %26
  br label %31

31:                                               ; preds = %30
  store i8 1, ptr %4, align 1, !tbaa !13
  %32 = load i8, ptr %4, align 1, !tbaa !13, !range !15, !noundef !16
  %33 = trunc i8 %32 to i1
  %34 = zext i1 %33 to i8
  store i8 %34, ptr %4, align 1, !tbaa !13
  br label %35

35:                                               ; preds = %31
  br label %36

36:                                               ; preds = %35
  br label %37

37:                                               ; preds = %36
  store i32 -1, ptr %3, align 4, !tbaa !11
  br label %43

38:                                               ; No predecessors!
  br label %39

39:                                               ; preds = %38
  br label %40

40:                                               ; preds = %39
  br label %41

41:                                               ; preds = %40
  br label %42

42:                                               ; preds = %41, %19
  br label %43

43:                                               ; preds = %42, %37
  br label %44

44:                                               ; preds = %43, %11
  %45 = load i32, ptr %3, align 4, !tbaa !11
  call void @llvm.lifetime.end.p0(i64 1, ptr %4) #7
  call void @llvm.lifetime.end.p0(i64 4, ptr %3) #7
  ret i32 %45
}