; Function Attrs: nounwind uwtable
define internal range(i32 -1, 1) i32 @H5HF__sect_row_term_cls(ptr noundef captures(none) %0) #0 {
  %2 = load i8, ptr @H5HF_init_g, align 1, !tbaa !3, !range !7, !noundef !8
  %3 = trunc nuw i8 %2 to i1
  %4 = load i8, ptr @H5_libterm_g, align 1, !range !7
  %5 = trunc nuw i8 %4 to i1
  %6 = xor i1 %5, true
  %7 = select i1 %3, i1 true, i1 %6
  br i1 %7, label %8, label %22, !prof !9

8:                                                ; preds = %1
  %9 = getelementptr inbounds nuw i8, ptr %0, i64 24
  %10 = load ptr, ptr %9, align 8, !tbaa !60
  %11 = load ptr, ptr %10, align 8, !tbaa !12
  %12 = tail call i32 @H5HF__hdr_decr(ptr noundef %11) #13
  %13 = icmp slt i32 %12, 0
  br i1 %13, label %15, label %H5FS__sect_term_cls.exit

H5FS__sect_term_cls.exit:                         ; preds = %8
  %14 = tail call ptr @H5MM_xfree(ptr noundef nonnull %10) #13
  store ptr %14, ptr %9, align 8, !tbaa !60
  br label %22

15:                                               ; preds = %8
  %16 = load i64, ptr @H5E_HEAP_g, align 8, !tbaa !18
  %17 = load i64, ptr @H5E_CANTDEC_g, align 8, !tbaa !18
  %18 = tail call i32 (ptr, ptr, i32, i64, i64, ptr, ...) @H5E_printf_stack(ptr noundef nonnull @.str, ptr noundef nonnull @__func__.H5FS__sect_term_cls, i32 noundef 338, i64 noundef %16, i64 noundef %17, ptr noundef nonnull @.str.38) #13
  %19 = load i64, ptr @H5E_HEAP_g, align 8, !tbaa !18
  %20 = load i64, ptr @H5E_CANTRELEASE_g, align 8, !tbaa !18
  %21 = tail call i32 (ptr, ptr, i32, i64, i64, ptr, ...) @H5E_printf_stack(ptr noundef nonnull @.str, ptr noundef nonnull @__func__.H5HF__sect_row_term_cls, i32 noundef 1532, i64 noundef %19, i64 noundef %20, ptr noundef nonnull @.str.37) #13
  br label %22

22:                                               ; preds = %H5FS__sect_term_cls.exit, %15, %1
  %.0 = phi i32 [ -1, %15 ], [ 0, %H5FS__sect_term_cls.exit ], [ 0, %1 ]
  ret i32 %.0
}